target datalayout = "e-m:e-p270:32:32-p271:32:32-p272:64:64-i64:64-i128:128-f80:128-n8:16:32:64-S128"
target triple = "x86_64-pc-linux-gnu"

%struct._zval_struct = type { %union._zend_value, %union.anon, %union.anon.2 }
%union._zend_value = type { i64 }
%union.anon = type { i32 }
%union.anon.2 = type { i32 }
%struct._zend_refcounted_h = type { i32, %union.anon.3 }
%union.anon.3 = type { i32 }
%struct.anon.0 = type { i8, i8, %union.anon.1 }
%union.anon.1 = type { i16 }
%struct._zend_refcounted = type { %struct._zend_refcounted_h }
%struct._zend_reference = type { %struct._zend_refcounted_h, %struct._zval_struct, %union.zend_property_info_source_list }
%union.zend_property_info_source_list = type { ptr }

; Function Attrs: alwaysinline nounwind uwtable
define internal void @gc_check_possible_root_no_ref(ptr noundef %0) #2 {
  %2 = alloca ptr, align 8
  store ptr %0, ptr %2, align 8, !tbaa !45
  %3 = load ptr, ptr %2, align 8, !tbaa !45
  %4 = getelementptr inbounds nuw %struct._zend_refcounted, ptr %3, i32 0, i32 0
  %5 = getelementptr inbounds nuw %struct._zend_refcounted_h, ptr %4, i32 0, i32 1
  %6 = load i32, ptr %5, align 4, !tbaa !44
  %7 = icmp ne i32 %6, 26
  call void @llvm.assume(i1 %7)
  %8 = load ptr, ptr %2, align 8, !tbaa !45
  %9 = getelementptr inbounds nuw %struct._zend_refcounted, ptr %8, i32 0, i32 0
  %10 = getelementptr inbounds nuw %struct._zend_refcounted_h, ptr %9, i32 0, i32 1
  %11 = load i32, ptr %10, align 4, !tbaa !44
  %12 = and i32 %11, -1008
  %13 = icmp eq i32 %12, 0
  %14 = xor i1 %13, true
  %15 = xor i1 %14, true
  %16 = zext i1 %15 to i32
  %17 = sext i32 %16 to i64
  %18 = call i64 @llvm.expect.i64(i64 %17, i64 0)
  %19 = icmp ne i64 %18, 0
  br i1 %19, label %20, label %22

20:                                               ; preds = %1
  %21 = load ptr, ptr %2, align 8, !tbaa !45
  call void @gc_possible_root(ptr noundef %21)
  br label %22

22:                                               ; preds = %20, %1
  ret void
}

; Function Attrs: alwaysinline nounwind uwtable
define internal i32 @zend_gc_delref(ptr noundef %0) #2 {
  %2 = alloca ptr, align 8
  store ptr %0, ptr %2, align 8, !tbaa !143
  %3 = load ptr, ptr %2, align 8, !tbaa !143
  %4 = getelementptr inbounds nuw %struct._zend_refcounted_h, ptr %3, i32 0, i32 0
  %5 = load i32, ptr %4, align 4, !tbaa !145
  %6 = icmp ugt i32 %5, 0
  call void @llvm.assume(i1 %6)
  br label %7

7:                                                ; preds = %1
  br label %8

8:                                                ; preds = %7
  %9 = load ptr, ptr %2, align 8, !tbaa !143
  %10 = getelementptr inbounds nuw %struct._zend_refcounted_h, ptr %9, i32 0, i32 0
  %11 = load i32, ptr %10, align 4, !tbaa !145
  %12 = add i32 %11, -1
  store i32 %12, ptr %10, align 4, !tbaa !145
  ret i32 %12
}

; Function Attrs: alwaysinline nounwind uwtable
define internal void @zend_safe_assign_to_variable_noref(ptr noundef %0, ptr noundef %1) #2 {
  %3 = alloca ptr, align 8
  %4 = alloca ptr, align 8
  %5 = alloca ptr, align 8
  %6 = alloca ptr, align 8
  %7 = alloca ptr, align 8
  %8 = alloca ptr, align 8
  %9 = alloca i32, align 4
  %10 = alloca ptr, align 8
  %11 = alloca ptr, align 8
  %12 = alloca ptr, align 8
  %13 = alloca ptr, align 8
  %14 = alloca i32, align 4
  store ptr %0, ptr %3, align 8, !tbaa !8
  store ptr %1, ptr %4, align 8, !tbaa !8
  %15 = load ptr, ptr %3, align 8, !tbaa !8
  %16 = getelementptr inbounds nuw %struct._zval_struct, ptr %15, i32 0, i32 1
  %17 = getelementptr inbounds nuw %struct.anon.0, ptr %16, i32 0, i32 1
  %18 = load i8, ptr %17, align 1, !tbaa !44
  %19 = zext i8 %18 to i32
  %20 = icmp ne i32 %19, 0
  br i1 %20, label %21, label %58

21:                                               ; preds = %2
  call void @llvm.lifetime.start.p0(i64 8, ptr %5) #21
  %22 = load ptr, ptr %3, align 8, !tbaa !8
  %23 = getelementptr inbounds nuw %struct._zval_struct, ptr %22, i32 0, i32 0
  %24 = load ptr, ptr %23, align 8, !tbaa !44
  store ptr %24, ptr %5, align 8, !tbaa !45
  br label %25

25:                                               ; preds = %21
  call void @llvm.lifetime.start.p0(i64 8, ptr %6) #21
  %26 = load ptr, ptr %3, align 8, !tbaa !8
  store ptr %26, ptr %6, align 8, !tbaa !8
  call void @llvm.lifetime.start.p0(i64 8, ptr %7) #21
  %27 = load ptr, ptr %4, align 8, !tbaa !8
  store ptr %27, ptr %7, align 8, !tbaa !8
  call void @llvm.lifetime.start.p0(i64 8, ptr %8) #21
  %28 = load ptr, ptr %7, align 8, !tbaa !8
  %29 = getelementptr inbounds nuw %struct._zval_struct, ptr %28, i32 0, i32 0
  %30 = load ptr, ptr %29, align 8, !tbaa !44
  store ptr %30, ptr %8, align 8, !tbaa !45
  call void @llvm.lifetime.start.p0(i64 4, ptr %9) #21
  %31 = load ptr, ptr %7, align 8, !tbaa !8
  %32 = getelementptr inbounds nuw %struct._zval_struct, ptr %31, i32 0, i32 1
  %33 = load i32, ptr %32, align 8, !tbaa !44
  store i32 %33, ptr %9, align 4, !tbaa !4
  br label %34

34:                                               ; preds = %25
  %35 = load ptr, ptr %8, align 8, !tbaa !45
  %36 = load ptr, ptr %6, align 8, !tbaa !8
  %37 = getelementptr inbounds nuw %struct._zval_struct, ptr %36, i32 0, i32 0
  store ptr %35, ptr %37, align 8, !tbaa !44
  %38 = load i32, ptr %9, align 4, !tbaa !4
  %39 = load ptr, ptr %6, align 8, !tbaa !8
  %40 = getelementptr inbounds nuw %struct._zval_struct, ptr %39, i32 0, i32 1
  store i32 %38, ptr %40, align 8, !tbaa !44
  br label %41

41:                                               ; preds = %34
  br label %42

42:                                               ; preds = %41
  call void @llvm.lifetime.end.p0(i64 4, ptr %9) #21
  call void @llvm.lifetime.end.p0(i64 8, ptr %8) #21
  call void @llvm.lifetime.end.p0(i64 8, ptr %7) #21
  call void @llvm.lifetime.end.p0(i64 8, ptr %6) #21
  br label %43

43:                                               ; preds = %42
  br label %44

44:                                               ; preds = %43
  br label %45

45:                                               ; preds = %44
  call void @llvm.lifetime.start.p0(i64 8, ptr %10) #21
  %46 = load ptr, ptr %5, align 8, !tbaa !45
  %47 = getelementptr inbounds nuw %struct._zend_refcounted, ptr %46, i32 0, i32 0
  store ptr %47, ptr %10, align 8, !tbaa !143
  %48 = load ptr, ptr %10, align 8, !tbaa !143
  %49 = call i32 @zend_gc_delref(ptr noundef %48)
  %50 = icmp eq i32 %49, 0
  br i1 %50, label %51, label %53

51:                                               ; preds = %45
  %52 = load ptr, ptr %10, align 8, !tbaa !143
  call void @rc_dtor_func(ptr noundef %52)
  br label %55

53:                                               ; preds = %45
  %54 = load ptr, ptr %10, align 8, !tbaa !143
  call void @gc_check_possible_root_no_ref(ptr noundef %54)
  br label %55

55:                                               ; preds = %53, %51
  call void @llvm.lifetime.end.p0(i64 8, ptr %10) #21
  br label %56

56:                                               ; preds = %55
  br label %57

57:                                               ; preds = %56
  call void @llvm.lifetime.end.p0(i64 8, ptr %5) #21
  br label %78

58:                                               ; preds = %2
  br label %59

59:                                               ; preds = %58
  call void @llvm.lifetime.start.p0(i64 8, ptr %11) #21
  %60 = load ptr, ptr %3, align 8, !tbaa !8
  store ptr %60, ptr %11, align 8, !tbaa !8
  call void @llvm.lifetime.start.p0(i64 8, ptr %12) #21
  %61 = load ptr, ptr %4, align 8, !tbaa !8
  store ptr %61, ptr %12, align 8, !tbaa !8
  call void @llvm.lifetime.start.p0(i64 8, ptr %13) #21
  %62 = load ptr, ptr %12, align 8, !tbaa !8
  %63 = getelementptr inbounds nuw %struct._zval_struct, ptr %62, i32 0, i32 0
  %64 = load ptr, ptr %63, align 8, !tbaa !44
  store ptr %64, ptr %13, align 8, !tbaa !45
  call void @llvm.lifetime.start.p0(i64 4, ptr %14) #21
  %65 = load ptr, ptr %12, align 8, !tbaa !8
  %66 = getelementptr inbounds nuw %struct._zval_struct, ptr %65, i32 0, i32 1
  %67 = load i32, ptr %66, align 8, !tbaa !44
  store i32 %67, ptr %14, align 4, !tbaa !4
  br label %68

68:                                               ; preds = %59
  %69 = load ptr, ptr %13, align 8, !tbaa !45
  %70 = load ptr, ptr %11, align 8, !tbaa !8
  %71 = getelementptr inbounds nuw %struct._zval_struct, ptr %70, i32 0, i32 0
  store ptr %69, ptr %71, align 8, !tbaa !44
  %72 = load i32, ptr %14, align 4, !tbaa !4
  %73 = load ptr, ptr %11, align 8, !tbaa !8
  %74 = getelementptr inbounds nuw %struct._zval_struct, ptr %73, i32 0, i32 1
  store i32 %72, ptr %74, align 8, !tbaa !44
  br label %75

75:                                               ; preds = %68
  br label %76

76:                                               ; preds = %75
  call void @llvm.lifetime.end.p0(i64 4, ptr %14) #21
  call void @llvm.lifetime.end.p0(i64 8, ptr %13) #21
  call void @llvm.lifetime.end.p0(i64 8, ptr %12) #21
  call void @llvm.lifetime.end.p0(i64 8, ptr %11) #21
  br label %77

77:                                               ; preds = %76
  br label %78

78:                                               ; preds = %77, %57
  ret void
}

; Function Attrs: nounwind uwtable
define dso_local i32 @zend_try_assign_typed_ref_ex(ptr noundef %0, ptr noundef %1, i1 noundef zeroext %2) #0 {
  %4 = alloca i32, align 4
  %5 = alloca ptr, align 8
  %6 = alloca ptr, align 8
  %7 = alloca i8, align 1
  store ptr %0, ptr %5, align 8, !tbaa !167
  store ptr %1, ptr %6, align 8, !tbaa !8
  %8 = zext i1 %2 to i8
  store i8 %8, ptr %7, align 1, !tbaa !72
  %9 = load ptr, ptr %5, align 8, !tbaa !167
  %10 = load ptr, ptr %6, align 8, !tbaa !8
  %11 = load i8, ptr %7, align 1, !tbaa !72, !range !73, !noundef !74
  %12 = trunc i8 %11 to i1
  %13 = call zeroext i1 @zend_verify_ref_assignable_zval(ptr noundef %9, ptr noundef %10, i1 noundef zeroext %12)
  %14 = xor i1 %13, true
  %15 = xor i1 %14, true
  %16 = xor i1 %15, true
  %17 = zext i1 %16 to i32
  %18 = sext i32 %17 to i64
  %19 = call i64 @llvm.expect.i64(i64 %18, i64 0)
  %20 = icmp ne i64 %19, 0
  br i1 %20, label %21, label %23

21:                                               ; preds = %3
  %22 = load ptr, ptr %6, align 8, !tbaa !8
  call void @zval_ptr_dtor(ptr noundef %22)
  store i32 -1, ptr %4, align 4
  br label %27

23:                                               ; preds = %3
  %24 = load ptr, ptr %5, align 8, !tbaa !167
  %25 = getelementptr inbounds nuw %struct._zend_reference, ptr %24, i32 0, i32 1
  %26 = load ptr, ptr %6, align 8, !tbaa !8
  call void @zend_safe_assign_to_variable_noref(ptr noundef %25, ptr noundef %26)
  store i32 0, ptr %4, align 4
  br label %27

27:                                               ; preds = %23, %21
  %28 = load i32, ptr %4, align 4
  ret i32 %28
}

; Function Attrs: nounwind uwtable
define dso_local i32 @zend_try_assign_typed_ref_zval_ex(ptr noundef %0, ptr noundef %1, i1 noundef zeroext %2) #0 {
  %4 = alloca ptr, align 8
  %5 = alloca ptr, align 8
  %6 = alloca i8, align 1
  %7 = alloca %struct._zval_struct, align 8
  %8 = alloca ptr, align 8
  %9 = alloca ptr, align 8
  %10 = alloca ptr, align 8
  %11 = alloca i32, align 4
  store ptr %0, ptr %4, align 8, !tbaa !167
  store ptr %1, ptr %5, align 8, !tbaa !8
  %12 = zext i1 %2 to i8
  store i8 %12, ptr %6, align 1, !tbaa !72
  call void @llvm.lifetime.start.p0(i64 16, ptr %7) #21
  br label %13

13:                                               ; preds = %3
  call void @llvm.lifetime.start.p0(i64 8, ptr %8) #21
  store ptr %7, ptr %8, align 8, !tbaa !8
  call void @llvm.lifetime.start.p0(i64 8, ptr %9) #21
  %14 = load ptr, ptr %5, align 8, !tbaa !8
  store ptr %14, ptr %9, align 8, !tbaa !8
  call void @llvm.lifetime.start.p0(i64 8, ptr %10) #21
  %15 = load ptr, ptr %9, align 8, !tbaa !8
  %16 = getelementptr inbounds nuw %struct._zval_struct, ptr %15, i32 0, i32 0
  %17 = load ptr, ptr %16, align 8, !tbaa !44
  store ptr %17, ptr %10, align 8, !tbaa !45
  call void @llvm.lifetime.start.p0(i64 4, ptr %11) #21
  %18 = load ptr, ptr %9, align 8, !tbaa !8
  %19 = getelementptr inbounds nuw %struct._zval_struct, ptr %18, i32 0, i32 1
  %20 = load i32, ptr %19, align 8, !tbaa !44
  store i32 %20, ptr %11, align 4, !tbaa !4
  br label %21

21:                                               ; preds = %13
  %22 = load ptr, ptr %10, align 8, !tbaa !45
  %23 = load ptr, ptr %8, align 8, !tbaa !8
  %24 = getelementptr inbounds nuw %struct._zval_struct, ptr %23, i32 0, i32 0
  store ptr %22, ptr %24, align 8, !tbaa !44
  %25 = load i32, ptr %11, align 4, !tbaa !4
  %26 = load ptr, ptr %8, align 8, !tbaa !8
  %27 = getelementptr inbounds nuw %struct._zval_struct, ptr %26, i32 0, i32 1
  store i32 %25, ptr %27, align 8, !tbaa !44
  br label %28

28:                                               ; preds = %21
  br label %29

29:                                               ; preds = %28
  call void @llvm.lifetime.end.p0(i64 4, ptr %11) #21
  call void @llvm.lifetime.end.p0(i64 8, ptr %10) #21
  call void @llvm.lifetime.end.p0(i64 8, ptr %9) #21
  call void @llvm.lifetime.end.p0(i64 8, ptr %8) #21
  br label %30

30:                                               ; preds = %29
  br label %31

31:                                               ; preds = %30
  %32 = load ptr, ptr %4, align 8, !tbaa !167
  %33 = load i8, ptr %6, align 1, !tbaa !72, !range !73, !noundef !74
  %34 = trunc i8 %33 to i1
  %35 = call i32 @zend_try_assign_typed_ref_ex(ptr noundef %32, ptr noundef %7, i1 noundef zeroext %34)
  call void @llvm.lifetime.end.p0(i64 16, ptr %7) #21
  ret i32 %35
}