; Function Attrs: nounwind uwtable
define dso_local range(i32 -1, 1) i32 @zend_try_assign_typed_ref_zval_ex(ptr noundef %0, ptr noundef readonly captures(none) %1, i1 noundef zeroext %2) local_unnamed_addr #2 {
  %4 = alloca %struct._zval_struct, align 8
  call void @llvm.lifetime.start.p0(i64 16, ptr nonnull %4) #34
  %5 = load ptr, ptr %1, align 8, !tbaa !42
  %6 = getelementptr inbounds nuw i8, ptr %1, i64 8
  %7 = load i32, ptr %6, align 8, !tbaa !42
  store ptr %5, ptr %4, align 8, !tbaa !42
  %8 = getelementptr inbounds nuw i8, ptr %4, i64 8
  store i32 %7, ptr %8, align 8, !tbaa !42
  %9 = call zeroext i1 @zend_verify_ref_assignable_zval(ptr noundef %0, ptr noundef nonnull %4, i1 noundef zeroext %2) #34
  br i1 %9, label %11, label %10, !prof !45

10:                                               ; preds = %3
  call void @zval_ptr_dtor(ptr noundef nonnull %4) #34
  br label %zend_try_assign_typed_ref_ex.exit

11:                                               ; preds = %3
  %12 = getelementptr inbounds nuw i8, ptr %0, i64 8
  %13 = getelementptr inbounds nuw i8, ptr %0, i64 16
  %14 = getelementptr inbounds nuw i8, ptr %0, i64 17
  %15 = load i8, ptr %14, align 1, !tbaa !42
  %.not.i.i = icmp eq i8 %15, 0
  br i1 %.not.i.i, label %32, label %16

16:                                               ; preds = %11
  %17 = load ptr, ptr %12, align 8, !tbaa !42
  %18 = load ptr, ptr %4, align 8, !tbaa !42
  %19 = load i32, ptr %8, align 8, !tbaa !42
  store ptr %18, ptr %12, align 8, !tbaa !42
  store i32 %19, ptr %13, align 8, !tbaa !42
  %20 = load i32, ptr %17, align 4, !tbaa !43
  %21 = icmp ne i32 %20, 0
  call void @llvm.assume(i1 %21)
  %22 = add i32 %20, -1
  store i32 %22, ptr %17, align 4, !tbaa !43
  %23 = icmp eq i32 %22, 0
  br i1 %23, label %24, label %25

24:                                               ; preds = %16
  call void @rc_dtor_func(ptr noundef nonnull %17) #34
  br label %zend_try_assign_typed_ref_ex.exit

25:                                               ; preds = %16
  %26 = getelementptr inbounds nuw i8, ptr %17, i64 4
  %27 = load i32, ptr %26, align 4, !tbaa !42
  %28 = icmp ne i32 %27, 26
  call void @llvm.assume(i1 %28)
  %29 = and i32 %27, -1008
  %30 = icmp eq i32 %29, 0
  br i1 %30, label %31, label %zend_try_assign_typed_ref_ex.exit, !prof !46

31:                                               ; preds = %25
  call void @gc_possible_root(ptr noundef nonnull %17) #34
  br label %zend_try_assign_typed_ref_ex.exit

32:                                               ; preds = %11
  %33 = load ptr, ptr %4, align 8, !tbaa !42
  %34 = load i32, ptr %8, align 8, !tbaa !42
  store ptr %33, ptr %12, align 8, !tbaa !42
  store i32 %34, ptr %13, align 8, !tbaa !42
  br label %zend_try_assign_typed_ref_ex.exit

zend_try_assign_typed_ref_ex.exit:                ; preds = %10, %24, %25, %31, %32
  %.0.i = phi i32 [ -1, %10 ], [ 0, %31 ], [ 0, %25 ], [ 0, %24 ], [ 0, %32 ]
  call void @llvm.lifetime.end.p0(i64 16, ptr nonnull %4) #34
  ret i32 %.0.i
}